; ModuleID = 'source-C-CXX/26/234.c'
source_filename = "source-C-CXX/26/234.c"
target datalayout = "e-m:e-p270:32:32-p271:32:32-p272:64:64-i64:64-f80:128-n8:16:32:64-S128"
target triple = "x86_64-pc-linux-gnu"

@.str = private unnamed_addr constant [3 x i8] c"%d\00", align 1
@.str.1 = private unnamed_addr constant [12 x i8] c"%lf %lf %lf\00", align 1
@.str.2 = private unnamed_addr constant [19 x i8] c"x1=%.5lf;x2=%.5lf\0A\00", align 1
@.str.3 = private unnamed_addr constant [13 x i8] c"x1=x2=%.5lf\0A\00", align 1
@.str.4 = private unnamed_addr constant [33 x i8] c"x1=%.5lf+%.5lfi;x2=%.5lf-%.5lfi\0A\00", align 1

; Function Attrs: nofree nounwind sspstrong uwtable
define dso_local i32 @main() local_unnamed_addr #0 {
  %1 = alloca i32, align 4
  %2 = alloca double, align 8
  %3 = alloca double, align 8
  %4 = alloca double, align 8
  %5 = bitcast i32* %1 to i8*
  call void @llvm.lifetime.start.p0i8(i64 4, i8* nonnull %5) #4
  %6 = call i32 (i8*, ...) @__isoc99_scanf(i8* getelementptr inbounds ([3 x i8], [3 x i8]* @.str, i64 0, i64 0), i32* nonnull %1)
  %7 = bitcast double* %2 to i8*
  %8 = bitcast double* %3 to i8*
  %9 = bitcast double* %4 to i8*
  %10 = load i32, i32* %1, align 4, !tbaa !5
  %11 = icmp slt i32 %10, 1
  br i1 %11, label %66, label %12

12:                                               ; preds = %0, %62
  %13 = phi i32 [ %63, %62 ], [ 1, %0 ]
  call void @llvm.lifetime.start.p0i8(i64 8, i8* nonnull %7) #4
  call void @llvm.lifetime.start.p0i8(i64 8, i8* nonnull %8) #4
  call void @llvm.lifetime.start.p0i8(i64 8, i8* nonnull %9) #4
  %14 = call i32 (i8*, ...) @__isoc99_scanf(i8* getelementptr inbounds ([12 x i8], [12 x i8]* @.str.1, i64 0, i64 0), double* nonnull %2, double* nonnull %3, double* nonnull %4)
  %15 = load double, double* %3, align 8, !tbaa !9
  %16 = fmul double %15, %15
  %17 = load double, double* %2, align 8, !tbaa !9
  %18 = fmul double %17, 4.000000e+00
  %19 = load double, double* %4, align 8, !tbaa !9
  %20 = fmul double %18, %19
  %21 = fsub double %16, %20
  %22 = fcmp ogt double %21, 0.000000e+00
  br i1 %22, label %23, label %34

23:                                               ; preds = %12
  %24 = call double @sqrt(double %21) #4
  %25 = load double, double* %3, align 8, !tbaa !9
  %26 = fneg double %25
  %27 = fsub double %24, %25
  %28 = load double, double* %2, align 8, !tbaa !9
  %29 = fmul double %28, 2.000000e+00
  %30 = fdiv double %27, %29
  %31 = fsub double %26, %24
  %32 = fdiv double %31, %29
  %33 = call i32 (i8*, ...) @printf(i8* nonnull dereferenceable(1) getelementptr inbounds ([19 x i8], [19 x i8]* @.str.2, i64 0, i64 0), double %30, double %32)
  br label %62

34:                                               ; preds = %12
  %35 = fcmp oeq double %21, 0.000000e+00
  br i1 %35, label %36, label %41

36:                                               ; preds = %34
  %37 = fneg double %15
  %38 = fmul double %17, 2.000000e+00
  %39 = fdiv double %37, %38
  %40 = call i32 (i8*, ...) @printf(i8* nonnull dereferenceable(1) getelementptr inbounds ([13 x i8], [13 x i8]* @.str.3, i64 0, i64 0), double %39)
  br label %62

41:                                               ; preds = %34
  %42 = fcmp olt double %21, 0.000000e+00
  br i1 %42, label %43, label %62

43:                                               ; preds = %41
  %44 = fneg double %21
  %45 = call double @sqrt(double %44) #4
  %46 = load double, double* %3, align 8, !tbaa !9
  %47 = fcmp oeq double %46, 0.000000e+00
  br i1 %47, label %48, label %52

48:                                               ; preds = %43
  %49 = load double, double* %2, align 8, !tbaa !9
  %50 = fmul double %49, 2.000000e+00
  %51 = fdiv double %46, %50
  br label %57

52:                                               ; preds = %43
  %53 = fneg double %46
  %54 = load double, double* %2, align 8, !tbaa !9
  %55 = fmul double %54, 2.000000e+00
  %56 = fdiv double %53, %55
  br label %57

57:                                               ; preds = %52, %48
  %58 = phi double [ %55, %52 ], [ %50, %48 ]
  %59 = phi double [ %56, %52 ], [ %51, %48 ]
  %60 = fdiv double %45, %58
  %61 = call i32 (i8*, ...) @printf(i8* nonnull dereferenceable(1) getelementptr inbounds ([33 x i8], [33 x i8]* @.str.4, i64 0, i64 0), double %59, double %60, double %59, double %60)
  br label %62

62:                                               ; preds = %36, %57, %41, %23
  call void @llvm.lifetime.end.p0i8(i64 8, i8* nonnull %9) #4
  call void @llvm.lifetime.end.p0i8(i64 8, i8* nonnull %8) #4
  call void @llvm.lifetime.end.p0i8(i64 8, i8* nonnull %7) #4
  %63 = add nuw nsw i32 %13, 1
  %64 = load i32, i32* %1, align 4, !tbaa !5
  %65 = icmp slt i32 %13, %64
  br i1 %65, label %12, label %66, !llvm.loop !11

66:                                               ; preds = %62, %0
  call void @llvm.lifetime.end.p0i8(i64 4, i8* nonnull %5) #4
  ret i32 0
}

; Function Attrs: argmemonly mustprogress nofree nosync nounwind willreturn
declare void @llvm.lifetime.start.p0i8(i64 immarg, i8* nocapture) #1

; Function Attrs: nofree nounwind
declare noundef i32 @__isoc99_scanf(i8* nocapture noundef readonly, ...) local_unnamed_addr #2

; Function Attrs: mustprogress nofree nounwind willreturn
declare double @sqrt(double) local_unnamed_addr #3

; Function Attrs: nofree nounwind
declare noundef i32 @printf(i8* nocapture noundef readonly, ...) local_unnamed_addr #2

; Function Attrs: argmemonly mustprogress nofree nosync nounwind willreturn
declare void @llvm.lifetime.end.p0i8(i64 immarg, i8* nocapture) #1


!llvm.module.flags = !{!0, !1, !2, !3}
!llvm.ident = !{!4}

!0 = !{i32 1, !"wchar_size", i32 4}
!1 = !{i32 7, !"PIC Level", i32 2}
!2 = !{i32 7, !"PIE Level", i32 2}
!3 = !{i32 7, !"uwtable", i32 1}
!4 = !{!"clang version 13.0.0"}
!5 = !{!6, !6, i64 0}
!6 = !{!"int", !7, i64 0}
!7 = !{!"omnipotent char", !8, i64 0}
!8 = !{!"Simple C/C++ TBAA"}
!9 = !{!10, !10, i64 0}
!10 = !{!"double", !7, i64 0}
!11 = distinct !{!11, !12}
!12 = !{!"llvm.loop.mustprogress"}
